target datalayout = "e-m:e-p270:32:32-p271:32:32-p272:64:64-i64:64-i128:128-f80:128-n8:16:32:64-S128"
target triple = "x86_64-pc-linux-gnu"

%"struct.duckdb_re2::RuneRange" = type { i32, i32 }
%"class.duckdb_re2::CharClass" = type <{ i8, [3 x i8], i32, ptr, i32, [4 x i8] }>

; Function Attrs: mustprogress nounwind uwtable
define linkonce_odr hidden void @_ZN10duckdb_re29RuneRangeC2Eii(ptr noundef nonnull align 4 dereferenceable(8) %0, i32 noundef %1, i32 noundef %2) unnamed_addr #0 comdat align 2 {
  %4 = alloca ptr, align 8
  %5 = alloca i32, align 4
  %6 = alloca i32, align 4
  store ptr %0, ptr %4, align 8, !tbaa !161
  store i32 %1, ptr %5, align 4, !tbaa !29
  store i32 %2, ptr %6, align 4, !tbaa !29
  %7 = load ptr, ptr %4, align 8
  %8 = getelementptr inbounds nuw %"struct.duckdb_re2::RuneRange", ptr %7, i32 0, i32 0
  %9 = load i32, ptr %5, align 4, !tbaa !29
  store i32 %9, ptr %8, align 4, !tbaa !157
  %10 = getelementptr inbounds nuw %"struct.duckdb_re2::RuneRange", ptr %7, i32 0, i32 1
  %11 = load i32, ptr %6, align 4, !tbaa !29
  store i32 %11, ptr %10, align 4, !tbaa !159
  ret void
}

; Function Attrs: mustprogress nounwind uwtable
define linkonce_odr hidden noundef ptr @_ZN10duckdb_re29CharClass3endEv(ptr noundef nonnull align 8 dereferenceable(20) %0) #0 comdat align 2 {
  %2 = alloca ptr, align 8
  store ptr %0, ptr %2, align 8, !tbaa !48
  %3 = load ptr, ptr %2, align 8
  %4 = getelementptr inbounds nuw %"class.duckdb_re2::CharClass", ptr %3, i32 0, i32 3
  %5 = load ptr, ptr %4, align 8, !tbaa !179
  %6 = getelementptr inbounds nuw %"class.duckdb_re2::CharClass", ptr %3, i32 0, i32 4
  %7 = load i32, ptr %6, align 8, !tbaa !181
  %8 = sext i32 %7 to i64
  %9 = getelementptr inbounds %"struct.duckdb_re2::RuneRange", ptr %5, i64 %8
  ret ptr %9
}

; Function Attrs: mustprogress nounwind uwtable
define linkonce_odr hidden noundef ptr @_ZN10duckdb_re29CharClass5beginEv(ptr noundef nonnull align 8 dereferenceable(20) %0) #0 comdat align 2 {
  %2 = alloca ptr, align 8
  store ptr %0, ptr %2, align 8, !tbaa !48
  %3 = load ptr, ptr %2, align 8
  %4 = getelementptr inbounds nuw %"class.duckdb_re2::CharClass", ptr %3, i32 0, i32 3
  %5 = load ptr, ptr %4, align 8, !tbaa !179
  ret ptr %5
}

; Function Attrs: mustprogress uwtable
define hidden noundef ptr @_ZN10duckdb_re29CharClass3NewEm(i64 noundef %0) #4 align 2 {
  %2 = alloca i64, align 8
  %3 = alloca ptr, align 8
  %4 = alloca ptr, align 8
  store i64 %0, ptr %2, align 8, !tbaa !85
  call void @llvm.lifetime.start.p0(i64 8, ptr %3) #18
  call void @llvm.lifetime.start.p0(i64 8, ptr %4) #18
  %5 = load i64, ptr %2, align 8, !tbaa !85
  %6 = mul i64 %5, 8
  %7 = add i64 24, %6
  %8 = call noalias noundef nonnull ptr @_Znam(i64 noundef %7) #22
  store ptr %8, ptr %4, align 8, !tbaa !23
  %9 = load ptr, ptr %4, align 8, !tbaa !23
  store ptr %9, ptr %3, align 8, !tbaa !48
  %10 = load ptr, ptr %4, align 8, !tbaa !23
  %11 = getelementptr inbounds nuw i8, ptr %10, i64 24
  %12 = load ptr, ptr %3, align 8, !tbaa !48
  %13 = getelementptr inbounds nuw %"class.duckdb_re2::CharClass", ptr %12, i32 0, i32 3
  store ptr %11, ptr %13, align 8, !tbaa !179
  %14 = load ptr, ptr %3, align 8, !tbaa !48
  %15 = getelementptr inbounds nuw %"class.duckdb_re2::CharClass", ptr %14, i32 0, i32 4
  store i32 0, ptr %15, align 8, !tbaa !181
  %16 = load ptr, ptr %3, align 8, !tbaa !48
  %17 = getelementptr inbounds nuw %"class.duckdb_re2::CharClass", ptr %16, i32 0, i32 0
  store i8 0, ptr %17, align 8, !tbaa !182
  %18 = load ptr, ptr %3, align 8, !tbaa !48
  %19 = getelementptr inbounds nuw %"class.duckdb_re2::CharClass", ptr %18, i32 0, i32 2
  store i32 0, ptr %19, align 4, !tbaa !183
  %20 = load ptr, ptr %3, align 8, !tbaa !48
  call void @llvm.lifetime.end.p0(i64 8, ptr %4) #18
  call void @llvm.lifetime.end.p0(i64 8, ptr %3) #18
  ret ptr %20
}

; Function Attrs: mustprogress uwtable
define hidden noundef ptr @_ZN10duckdb_re29CharClass6NegateEv(ptr noundef nonnull align 8 dereferenceable(20) %0) #4 align 2 {
  %2 = alloca ptr, align 8
  %3 = alloca ptr, align 8
  %4 = alloca i32, align 4
  %5 = alloca i32, align 4
  %6 = alloca ptr, align 8
  %7 = alloca %"struct.duckdb_re2::RuneRange", align 4
  %8 = alloca %"struct.duckdb_re2::RuneRange", align 4
  store ptr %0, ptr %2, align 8, !tbaa !48
  %9 = load ptr, ptr %2, align 8
  call void @llvm.lifetime.start.p0(i64 8, ptr %3) #18
  %10 = getelementptr inbounds nuw %"class.duckdb_re2::CharClass", ptr %9, i32 0, i32 4
  %11 = load i32, ptr %10, align 8, !tbaa !181
  %12 = add nsw i32 %11, 1
  %13 = sext i32 %12 to i64
  %14 = call noundef ptr @_ZN10duckdb_re29CharClass3NewEm(i64 noundef %13)
  store ptr %14, ptr %3, align 8, !tbaa !48
  %15 = getelementptr inbounds nuw %"class.duckdb_re2::CharClass", ptr %9, i32 0, i32 0
  %16 = load i8, ptr %15, align 8, !tbaa !182, !range !44, !noundef !45
  %17 = trunc i8 %16 to i1
  %18 = load ptr, ptr %3, align 8, !tbaa !48
  %19 = getelementptr inbounds nuw %"class.duckdb_re2::CharClass", ptr %18, i32 0, i32 0
  %20 = zext i1 %17 to i8
  store i8 %20, ptr %19, align 8, !tbaa !182
  %21 = getelementptr inbounds nuw %"class.duckdb_re2::CharClass", ptr %9, i32 0, i32 2
  %22 = load i32, ptr %21, align 4, !tbaa !183
  %23 = sub nsw i32 1114112, %22
  %24 = load ptr, ptr %3, align 8, !tbaa !48
  %25 = getelementptr inbounds nuw %"class.duckdb_re2::CharClass", ptr %24, i32 0, i32 2
  store i32 %23, ptr %25, align 4, !tbaa !183
  call void @llvm.lifetime.start.p0(i64 4, ptr %4) #18
  store i32 0, ptr %4, align 4, !tbaa !29
  call void @llvm.lifetime.start.p0(i64 4, ptr %5) #18
  store i32 0, ptr %5, align 4, !tbaa !29
  call void @llvm.lifetime.start.p0(i64 8, ptr %6) #18
  %26 = call noundef ptr @_ZN10duckdb_re29CharClass5beginEv(ptr noundef nonnull align 8 dereferenceable(20) %9)
  store ptr %26, ptr %6, align 8, !tbaa !161
  br label %27

27:                                               ; preds = %61, %1
  %28 = load ptr, ptr %6, align 8, !tbaa !161
  %29 = call noundef ptr @_ZN10duckdb_re29CharClass3endEv(ptr noundef nonnull align 8 dereferenceable(20) %9)
  %30 = icmp ne ptr %28, %29
  br i1 %30, label %32, label %31

31:                                               ; preds = %27
  call void @llvm.lifetime.end.p0(i64 8, ptr %6) #18
  br label %64

32:                                               ; preds = %27
  %33 = load ptr, ptr %6, align 8, !tbaa !161
  %34 = getelementptr inbounds nuw %"struct.duckdb_re2::RuneRange", ptr %33, i32 0, i32 0
  %35 = load i32, ptr %34, align 4, !tbaa !157
  %36 = load i32, ptr %5, align 4, !tbaa !29
  %37 = icmp eq i32 %35, %36
  br i1 %37, label %38, label %43

38:                                               ; preds = %32
  %39 = load ptr, ptr %6, align 8, !tbaa !161
  %40 = getelementptr inbounds nuw %"struct.duckdb_re2::RuneRange", ptr %39, i32 0, i32 1
  %41 = load i32, ptr %40, align 4, !tbaa !159
  %42 = add nsw i32 %41, 1
  store i32 %42, ptr %5, align 4, !tbaa !29
  br label %60

43:                                               ; preds = %32
  call void @llvm.lifetime.start.p0(i64 8, ptr %7) #18
  %44 = load i32, ptr %5, align 4, !tbaa !29
  %45 = load ptr, ptr %6, align 8, !tbaa !161
  %46 = getelementptr inbounds nuw %"struct.duckdb_re2::RuneRange", ptr %45, i32 0, i32 0
  %47 = load i32, ptr %46, align 4, !tbaa !157
  %48 = sub nsw i32 %47, 1
  call void @_ZN10duckdb_re29RuneRangeC2Eii(ptr noundef nonnull align 4 dereferenceable(8) %7, i32 noundef %44, i32 noundef %48)
  %49 = load ptr, ptr %3, align 8, !tbaa !48
  %50 = getelementptr inbounds nuw %"class.duckdb_re2::CharClass", ptr %49, i32 0, i32 3
  %51 = load ptr, ptr %50, align 8, !tbaa !179
  %52 = load i32, ptr %4, align 4, !tbaa !29
  %53 = add nsw i32 %52, 1
  store i32 %53, ptr %4, align 4, !tbaa !29
  %54 = sext i32 %52 to i64
  %55 = getelementptr inbounds %"struct.duckdb_re2::RuneRange", ptr %51, i64 %54
  call void @llvm.memcpy.p0.p0.i64(ptr align 4 %55, ptr align 4 %7, i64 8, i1 false), !tbaa.struct !169
  call void @llvm.lifetime.end.p0(i64 8, ptr %7) #18
  %56 = load ptr, ptr %6, align 8, !tbaa !161
  %57 = getelementptr inbounds nuw %"struct.duckdb_re2::RuneRange", ptr %56, i32 0, i32 1
  %58 = load i32, ptr %57, align 4, !tbaa !159
  %59 = add nsw i32 %58, 1
  store i32 %59, ptr %5, align 4, !tbaa !29
  br label %60

60:                                               ; preds = %43, %38
  br label %61

61:                                               ; preds = %60
  %62 = load ptr, ptr %6, align 8, !tbaa !161
  %63 = getelementptr inbounds nuw %"struct.duckdb_re2::RuneRange", ptr %62, i32 1
  store ptr %63, ptr %6, align 8, !tbaa !161
  br label %27, !llvm.loop !184

64:                                               ; preds = %31
  %65 = load i32, ptr %5, align 4, !tbaa !29
  %66 = icmp sle i32 %65, 1114111
  br i1 %66, label %67, label %76

67:                                               ; preds = %64
  call void @llvm.lifetime.start.p0(i64 8, ptr %8) #18
  %68 = load i32, ptr %5, align 4, !tbaa !29
  call void @_ZN10duckdb_re29RuneRangeC2Eii(ptr noundef nonnull align 4 dereferenceable(8) %8, i32 noundef %68, i32 noundef 1114111)
  %69 = load ptr, ptr %3, align 8, !tbaa !48
  %70 = getelementptr inbounds nuw %"class.duckdb_re2::CharClass", ptr %69, i32 0, i32 3
  %71 = load ptr, ptr %70, align 8, !tbaa !179
  %72 = load i32, ptr %4, align 4, !tbaa !29
  %73 = add nsw i32 %72, 1
  store i32 %73, ptr %4, align 4, !tbaa !29
  %74 = sext i32 %72 to i64
  %75 = getelementptr inbounds %"struct.duckdb_re2::RuneRange", ptr %71, i64 %74
  call void @llvm.memcpy.p0.p0.i64(ptr align 4 %75, ptr align 4 %8, i64 8, i1 false), !tbaa.struct !169
  call void @llvm.lifetime.end.p0(i64 8, ptr %8) #18
  br label %76

76:                                               ; preds = %67, %64
  %77 = load i32, ptr %4, align 4, !tbaa !29
  %78 = load ptr, ptr %3, align 8, !tbaa !48
  %79 = getelementptr inbounds nuw %"class.duckdb_re2::CharClass", ptr %78, i32 0, i32 4
  store i32 %77, ptr %79, align 8, !tbaa !181
  %80 = load ptr, ptr %3, align 8, !tbaa !48
  call void @llvm.lifetime.end.p0(i64 4, ptr %5) #18
  call void @llvm.lifetime.end.p0(i64 4, ptr %4) #18
  call void @llvm.lifetime.end.p0(i64 8, ptr %3) #18
  ret ptr %80
}