; Function Attrs: mustprogress uwtable
define hidden noundef nonnull ptr @_ZN10duckdb_re29CharClass6NegateEv(ptr noundef nonnull readonly align 8 captures(none) dereferenceable(20) %0) local_unnamed_addr #7 align 2 {
  %2 = getelementptr inbounds nuw i8, ptr %0, i64 16
  %3 = load i32, ptr %2, align 8, !tbaa !65
  %4 = add nsw i32 %3, 1
  %5 = sext i32 %4 to i64
  %6 = shl nsw i64 %5, 3
  %7 = add nsw i64 %6, 24
  %8 = tail call noalias noundef nonnull ptr @_Znam(i64 noundef %7) #31
  %9 = getelementptr inbounds nuw i8, ptr %8, i64 24
  %10 = getelementptr inbounds nuw i8, ptr %8, i64 8
  store ptr %9, ptr %10, align 8, !tbaa !66
  %11 = getelementptr inbounds nuw i8, ptr %8, i64 4
  %12 = load i8, ptr %0, align 8, !tbaa !146, !range !147, !noundef !148
  store i8 %12, ptr %8, align 8, !tbaa !146
  %13 = getelementptr inbounds nuw i8, ptr %0, i64 4
  %14 = load i32, ptr %13, align 4, !tbaa !62
  %15 = sub nsw i32 1114112, %14
  store i32 %15, ptr %11, align 4, !tbaa !62
  %16 = getelementptr inbounds nuw i8, ptr %0, i64 8
  %.not24 = icmp eq i32 %3, 0
  br i1 %.not24, label %._crit_edge.thread, label %.lr.ph.preheader

.lr.ph.preheader:                                 ; preds = %1
  %17 = load ptr, ptr %16, align 8, !tbaa !66
  br label %.lr.ph

._crit_edge:                                      ; preds = %29
  %18 = icmp slt i32 %.1.in, 1114111
  br i1 %18, label %._crit_edge.thread, label %39

.lr.ph:                                           ; preds = %.lr.ph.preheader, %29
  %19 = phi i32 [ %30, %29 ], [ %3, %.lr.ph.preheader ]
  %20 = phi ptr [ %31, %29 ], [ %17, %.lr.ph.preheader ]
  %.027 = phi ptr [ %32, %29 ], [ %17, %.lr.ph.preheader ]
  %.01926 = phi i32 [ %.1, %29 ], [ 0, %.lr.ph.preheader ]
  %.02025 = phi i32 [ %.121, %29 ], [ 0, %.lr.ph.preheader ]
  %21 = load i32, ptr %.027, align 4, !tbaa !129
  %22 = icmp eq i32 %21, %.01926
  br i1 %22, label %29, label %23

23:                                               ; preds = %.lr.ph
  %24 = add nsw i32 %21, -1
  %25 = load ptr, ptr %10, align 8, !tbaa !66
  %26 = add nsw i32 %.02025, 1
  %27 = sext i32 %.02025 to i64
  %28 = getelementptr inbounds %"struct.duckdb_re2::RuneRange", ptr %25, i64 %27
  %.sroa.423.0.insert.ext = zext i32 %24 to i64
  %.sroa.423.0.insert.shift = shl nuw i64 %.sroa.423.0.insert.ext, 32
  %.sroa.022.0.insert.ext = zext i32 %.01926 to i64
  %.sroa.022.0.insert.insert = or disjoint i64 %.sroa.423.0.insert.shift, %.sroa.022.0.insert.ext
  store i64 %.sroa.022.0.insert.insert, ptr %28, align 4
  %.pre = load ptr, ptr %16, align 8, !tbaa !66
  %.pre29 = load i32, ptr %2, align 8, !tbaa !65
  br label %29

29:                                               ; preds = %.lr.ph, %23
  %30 = phi i32 [ %.pre29, %23 ], [ %19, %.lr.ph ]
  %31 = phi ptr [ %.pre, %23 ], [ %20, %.lr.ph ]
  %.121 = phi i32 [ %26, %23 ], [ %.02025, %.lr.ph ]
  %.1.in.in = getelementptr inbounds nuw i8, ptr %.027, i64 4
  %.1.in = load i32, ptr %.1.in.in, align 4, !tbaa !126
  %.1 = add nsw i32 %.1.in, 1
  %32 = getelementptr inbounds nuw i8, ptr %.027, i64 8
  %33 = sext i32 %30 to i64
  %34 = getelementptr inbounds %"struct.duckdb_re2::RuneRange", ptr %31, i64 %33
  %.not = icmp eq ptr %32, %34
  br i1 %.not, label %._crit_edge, label %.lr.ph, !llvm.loop !149

._crit_edge.thread:                               ; preds = %1, %._crit_edge
  %.019.lcssa33 = phi i32 [ %.1, %._crit_edge ], [ 0, %1 ]
  %.020.lcssa32 = phi i32 [ %.121, %._crit_edge ], [ 0, %1 ]
  %35 = load ptr, ptr %10, align 8, !tbaa !66
  %36 = add nsw i32 %.020.lcssa32, 1
  %37 = sext i32 %.020.lcssa32 to i64
  %38 = getelementptr inbounds %"struct.duckdb_re2::RuneRange", ptr %35, i64 %37
  %.sroa.0.0.insert.ext = zext i32 %.019.lcssa33 to i64
  %.sroa.0.0.insert.insert = or disjoint i64 %.sroa.0.0.insert.ext, 4785070309113856
  store i64 %.sroa.0.0.insert.insert, ptr %38, align 4
  br label %39

39:                                               ; preds = %._crit_edge.thread, %._crit_edge
  %.2 = phi i32 [ %36, %._crit_edge.thread ], [ %.121, %._crit_edge ]
  %40 = getelementptr inbounds nuw i8, ptr %8, i64 16
  store i32 %.2, ptr %40, align 8, !tbaa !65
  ret ptr %8
}